target datalayout = "e-m:e-p270:32:32-p271:32:32-p272:64:64-i64:64-i128:128-f80:128-n8:16:32:64-S128"
target triple = "x86_64-pc-linux-gnu"

%struct.Vec_Ptr_t_ = type { i32, i32, ptr }

; Function Attrs: inlinehint nounwind uwtable
define internal ptr @Hop_Not(ptr noundef %0) #2 {
  %2 = alloca ptr, align 8
  store ptr %0, ptr %2, align 8, !tbaa !19
  %3 = load ptr, ptr %2, align 8, !tbaa !19
  %4 = ptrtoint ptr %3 to i64
  %5 = xor i64 %4, 1
  %6 = inttoptr i64 %5 to ptr
  ret ptr %6
}

; Function Attrs: nounwind uwtable
define ptr @Hop_Miter(ptr noundef %0, ptr noundef %1) #0 {
  %3 = alloca ptr, align 8
  %4 = alloca ptr, align 8
  %5 = alloca i32, align 4
  store ptr %0, ptr %3, align 8, !tbaa !3
  store ptr %1, ptr %4, align 8, !tbaa !25
  call void @llvm.lifetime.start.p0(i64 4, ptr %5) #4
  store i32 0, ptr %5, align 4, !tbaa !8
  br label %6

6:                                                ; preds = %38, %2
  %7 = load i32, ptr %5, align 4, !tbaa !8
  %8 = load ptr, ptr %4, align 8, !tbaa !25
  %9 = getelementptr inbounds nuw %struct.Vec_Ptr_t_, ptr %8, i32 0, i32 1
  %10 = load i32, ptr %9, align 4, !tbaa !26
  %11 = icmp slt i32 %7, %10
  br i1 %11, label %12, label %41

12:                                               ; preds = %6
  %13 = load ptr, ptr %3, align 8, !tbaa !3
  %14 = load ptr, ptr %4, align 8, !tbaa !25
  %15 = getelementptr inbounds nuw %struct.Vec_Ptr_t_, ptr %14, i32 0, i32 2
  %16 = load ptr, ptr %15, align 8, !tbaa !28
  %17 = load i32, ptr %5, align 4, !tbaa !8
  %18 = sext i32 %17 to i64
  %19 = getelementptr inbounds ptr, ptr %16, i64 %18
  %20 = load ptr, ptr %19, align 8, !tbaa !29
  %21 = load ptr, ptr %4, align 8, !tbaa !25
  %22 = getelementptr inbounds nuw %struct.Vec_Ptr_t_, ptr %21, i32 0, i32 2
  %23 = load ptr, ptr %22, align 8, !tbaa !28
  %24 = load i32, ptr %5, align 4, !tbaa !8
  %25 = add nsw i32 %24, 1
  %26 = sext i32 %25 to i64
  %27 = getelementptr inbounds ptr, ptr %23, i64 %26
  %28 = load ptr, ptr %27, align 8, !tbaa !29
  %29 = call ptr @Hop_Exor(ptr noundef %13, ptr noundef %20, ptr noundef %28)
  %30 = call ptr @Hop_Not(ptr noundef %29)
  %31 = load ptr, ptr %4, align 8, !tbaa !25
  %32 = getelementptr inbounds nuw %struct.Vec_Ptr_t_, ptr %31, i32 0, i32 2
  %33 = load ptr, ptr %32, align 8, !tbaa !28
  %34 = load i32, ptr %5, align 4, !tbaa !8
  %35 = sdiv i32 %34, 2
  %36 = sext i32 %35 to i64
  %37 = getelementptr inbounds ptr, ptr %33, i64 %36
  store ptr %30, ptr %37, align 8, !tbaa !29
  br label %38

38:                                               ; preds = %12
  %39 = load i32, ptr %5, align 4, !tbaa !8
  %40 = add nsw i32 %39, 2
  store i32 %40, ptr %5, align 4, !tbaa !8
  br label %6, !llvm.loop !30

41:                                               ; preds = %6
  %42 = load ptr, ptr %4, align 8, !tbaa !25
  %43 = getelementptr inbounds nuw %struct.Vec_Ptr_t_, ptr %42, i32 0, i32 1
  %44 = load i32, ptr %43, align 4, !tbaa !26
  %45 = sdiv i32 %44, 2
  %46 = load ptr, ptr %4, align 8, !tbaa !25
  %47 = getelementptr inbounds nuw %struct.Vec_Ptr_t_, ptr %46, i32 0, i32 1
  store i32 %45, ptr %47, align 4, !tbaa !26
  %48 = load ptr, ptr %3, align 8, !tbaa !3
  %49 = load ptr, ptr %4, align 8, !tbaa !25
  %50 = getelementptr inbounds nuw %struct.Vec_Ptr_t_, ptr %49, i32 0, i32 2
  %51 = load ptr, ptr %50, align 8, !tbaa !28
  %52 = load ptr, ptr %4, align 8, !tbaa !25
  %53 = getelementptr inbounds nuw %struct.Vec_Ptr_t_, ptr %52, i32 0, i32 1
  %54 = load i32, ptr %53, align 4, !tbaa !26
  %55 = call ptr @Hop_Multi_rec(ptr noundef %48, ptr noundef %51, i32 noundef %54, i32 noundef 4)
  %56 = call ptr @Hop_Not(ptr noundef %55)
  call void @llvm.lifetime.end.p0(i64 4, ptr %5) #4
  ret ptr %56
}